; Function Attrs: mustprogress uwtable
define dso_local noundef zeroext i1 @_ZN4Luau5Widen7isDirtyEPKNS_4TypeE(ptr noundef nonnull readonly align 8 captures(none) dereferenceable(480) %0, ptr noundef %1) unnamed_addr #2 align 2 {
  %3 = getelementptr inbounds nuw i8, ptr %0, i64 144
  %4 = load ptr, ptr %3, align 8, !tbaa !51
  %5 = tail call noundef ptr @_ZNK4Luau6TxnLog7pendingEPKNS_4TypeE(ptr noundef nonnull align 8 dereferenceable(128) %4, ptr noundef %1)
  %.not.i = icmp eq ptr %5, null
  br i1 %.not.i, label %6, label %_ZN4Luau6get_ifINS_13SingletonTypeEJNS_9Unifiable5BoundIPKNS_4TypeEEENS2_5ErrorIS6_EENS_8FreeTypeENS_11GenericTypeENS_13PrimitiveTypeES1_NS_11BlockedTypeENS_20PendingExpansionTypeENS_12FunctionTypeENS_9TableTypeENS_13MetatableTypeENS_9ClassTypeENS_7AnyTypeENS_9UnionTypeENS_16IntersectionTypeENS_8LazyTypeENS_11UnknownTypeENS_9NeverTypeENS_12NegationTypeENS_12NoRefineTypeENS_24TypeFunctionInstanceTypeEEEEPKT_PKNS_7VariantIJDpT0_EEE.exit.sink.split.i

6:                                                ; preds = %2
  %.not.i7.i = icmp eq ptr %1, null
  br i1 %.not.i7.i, label %_ZNK4Luau6TxnLog2isINS_13SingletonTypeEPKNS_4TypeEEEbT0_.exit, label %_ZN4Luau6get_ifINS_13SingletonTypeEJNS_9Unifiable5BoundIPKNS_4TypeEEENS2_5ErrorIS6_EENS_8FreeTypeENS_11GenericTypeENS_13PrimitiveTypeES1_NS_11BlockedTypeENS_20PendingExpansionTypeENS_12FunctionTypeENS_9TableTypeENS_13MetatableTypeENS_9ClassTypeENS_7AnyTypeENS_9UnionTypeENS_16IntersectionTypeENS_8LazyTypeENS_11UnknownTypeENS_9NeverTypeENS_12NegationTypeENS_12NoRefineTypeENS_24TypeFunctionInstanceTypeEEEEPKT_PKNS_7VariantIJDpT0_EEE.exit.sink.split.i

_ZN4Luau6get_ifINS_13SingletonTypeEJNS_9Unifiable5BoundIPKNS_4TypeEEENS2_5ErrorIS6_EENS_8FreeTypeENS_11GenericTypeENS_13PrimitiveTypeES1_NS_11BlockedTypeENS_20PendingExpansionTypeENS_12FunctionTypeENS_9TableTypeENS_13MetatableTypeENS_9ClassTypeENS_7AnyTypeENS_9UnionTypeENS_16IntersectionTypeENS_8LazyTypeENS_11UnknownTypeENS_9NeverTypeENS_12NegationTypeENS_12NoRefineTypeENS_24TypeFunctionInstanceTypeEEEEPKT_PKNS_7VariantIJDpT0_EEE.exit.sink.split.i: ; preds = %6, %2
  %.sink8.i = phi ptr [ %5, %2 ], [ %1, %6 ]
  %7 = load i32, ptr %.sink8.i, align 8, !tbaa !84
  %8 = icmp eq i32 %7, 5
  br label %_ZNK4Luau6TxnLog2isINS_13SingletonTypeEPKNS_4TypeEEEbT0_.exit

_ZNK4Luau6TxnLog2isINS_13SingletonTypeEPKNS_4TypeEEEbT0_.exit: ; preds = %6, %_ZN4Luau6get_ifINS_13SingletonTypeEJNS_9Unifiable5BoundIPKNS_4TypeEEENS2_5ErrorIS6_EENS_8FreeTypeENS_11GenericTypeENS_13PrimitiveTypeES1_NS_11BlockedTypeENS_20PendingExpansionTypeENS_12FunctionTypeENS_9TableTypeENS_13MetatableTypeENS_9ClassTypeENS_7AnyTypeENS_9UnionTypeENS_16IntersectionTypeENS_8LazyTypeENS_11UnknownTypeENS_9NeverTypeENS_12NegationTypeENS_12NoRefineTypeENS_24TypeFunctionInstanceTypeEEEEPKT_PKNS_7VariantIJDpT0_EEE.exit.sink.split.i
  %.0.in.i = phi i1 [ false, %6 ], [ %8, %_ZN4Luau6get_ifINS_13SingletonTypeEJNS_9Unifiable5BoundIPKNS_4TypeEEENS2_5ErrorIS6_EENS_8FreeTypeENS_11GenericTypeENS_13PrimitiveTypeES1_NS_11BlockedTypeENS_20PendingExpansionTypeENS_12FunctionTypeENS_9TableTypeENS_13MetatableTypeENS_9ClassTypeENS_7AnyTypeENS_9UnionTypeENS_16IntersectionTypeENS_8LazyTypeENS_11UnknownTypeENS_9NeverTypeENS_12NegationTypeENS_12NoRefineTypeENS_24TypeFunctionInstanceTypeEEEEPKT_PKNS_7VariantIJDpT0_EEE.exit.sink.split.i ]
  ret i1 %.0.in.i
}